; Function Attrs: mustprogress null_pointer_is_valid sspstrong uwtable
define void @_ZN10PrefsModelC2EP7QObject(ptr noundef align 8 dereferenceable_or_null(24) %0, ptr noundef %1) unnamed_addr #0 align 2 personality ptr @__gxx_personality_v0 {
  %3 = alloca %class.QString, align 8
  tail call void @_ZN18QAbstractItemModelC2EP7QObject(ptr noundef align 8 dereferenceable_or_null(16) %0, ptr noundef %1)
  store ptr getelementptr inbounds nuw inrange(-16, 392) (i8, ptr @_ZTV10PrefsModel, i64 16), ptr %0, align 8
  %4 = getelementptr inbounds nuw i8, ptr %0, i64 16
  %5 = invoke noalias noundef dereferenceable_or_null(112) ptr @_Znwm(i64 noundef 112) #28
          to label %6 unwind label %15

6:                                                ; preds = %2
  store ptr null, ptr %3, align 8
  %7 = getelementptr inbounds nuw i8, ptr %3, i64 8
  store ptr @.str.2, ptr %7, align 8
  %8 = getelementptr inbounds nuw i8, ptr %3, i64 16
  store i64 4, ptr %8, align 8
  invoke void @_ZN9PrefsItemC1E7QStringPS_(ptr noundef align 8 dereferenceable_or_null(105) %5, ptr noundef nonnull %3, ptr noundef null)
          to label %9 unwind label %17

9:                                                ; preds = %6
  %10 = load ptr, ptr %3, align 8
  %.not.i.i.i = icmp eq ptr %10, null
  br i1 %.not.i.i.i, label %_ZN17QArrayDataPointerIDsED2Ev.exit, label %_ZN17QArrayDataPointerIDsE5derefEv.exit.i.i

_ZN17QArrayDataPointerIDsE5derefEv.exit.i.i:      ; preds = %9
  %11 = atomicrmw sub ptr %10, i32 1 seq_cst, align 4
  %.not.i.i = icmp eq i32 %11, 1
  br i1 %.not.i.i, label %12, label %_ZN17QArrayDataPointerIDsED2Ev.exit

12:                                               ; preds = %_ZN17QArrayDataPointerIDsE5derefEv.exit.i.i
  %13 = load ptr, ptr %3, align 8
  call void @_ZN10QArrayData10deallocateEPS_xx(ptr noundef %13, i64 noundef 2, i64 noundef 8) #26
  br label %_ZN17QArrayDataPointerIDsED2Ev.exit

_ZN17QArrayDataPointerIDsED2Ev.exit:              ; preds = %12, %_ZN17QArrayDataPointerIDsE5derefEv.exit.i.i, %9
  store ptr %5, ptr %4, align 8
  invoke void @_ZN10PrefsModel8populateEv(ptr noundef align 8 dereferenceable_or_null(24) %0)
          to label %14 unwind label %15

14:                                               ; preds = %_ZN17QArrayDataPointerIDsED2Ev.exit
  ret void

15:                                               ; preds = %_ZN17QArrayDataPointerIDsED2Ev.exit, %2
  %16 = landingpad { ptr, i32 }
          cleanup
  br label %23

17:                                               ; preds = %6
  %18 = landingpad { ptr, i32 }
          cleanup
  %19 = load ptr, ptr %3, align 8
  %.not.i.i.i7 = icmp eq ptr %19, null
  br i1 %.not.i.i.i7, label %_ZN17QArrayDataPointerIDsED2Ev.exit14, label %_ZN17QArrayDataPointerIDsE5derefEv.exit.i.i8

_ZN17QArrayDataPointerIDsE5derefEv.exit.i.i8:     ; preds = %17
  %20 = atomicrmw sub ptr %19, i32 1 seq_cst, align 4
  %.not.i.i9 = icmp eq i32 %20, 1
  br i1 %.not.i.i9, label %21, label %_ZN17QArrayDataPointerIDsED2Ev.exit14

21:                                               ; preds = %_ZN17QArrayDataPointerIDsE5derefEv.exit.i.i8
  %22 = load ptr, ptr %3, align 8
  call void @_ZN10QArrayData10deallocateEPS_xx(ptr noundef %22, i64 noundef 2, i64 noundef 8) #26
  br label %_ZN17QArrayDataPointerIDsED2Ev.exit14

_ZN17QArrayDataPointerIDsED2Ev.exit14:            ; preds = %21, %_ZN17QArrayDataPointerIDsE5derefEv.exit.i.i8, %17
  call void @_ZdlPvm(ptr noundef %5, i64 noundef 112) #27
  br label %23

23:                                               ; preds = %_ZN17QArrayDataPointerIDsED2Ev.exit14, %15
  %.pn = phi { ptr, i32 } [ %16, %15 ], [ %18, %_ZN17QArrayDataPointerIDsED2Ev.exit14 ]
  call void @_ZN18QAbstractItemModelD2Ev(ptr noundef align 8 dereferenceable_or_null(16) %0) #26
  resume { ptr, i32 } %.pn
}